	.file	"syscall_size.c"
	.text
.Ltext0:
	.comm	_syscall_print__size,8,1
	.comm	_syscall_set_program_break__size,8,1
	.comm	_syscall_make_readonly__size,8,1
	.comm	_syscall_make_executable__size,8,1
	.comm	_syscall_exit__size,4,1
	.comm	_syscall_spawn__size,12,1
	.comm	_syscall_current_exec_path__size,4,1
	.comm	_syscall_get_environment__size,12,1
	.comm	_syscall_yield__size,0,1
	.comm	_syscall_wait_eq__size,8,1
	.comm	_syscall_wait_neq__size,8,1
	.comm	_syscall_notify__size,4,1
	.globl	main
	.type	main, @function
main:
.LFB2:
	.file 1 "syscall/syscall_size.c"
	.loc 1 61 0
	.cfi_startproc
	pushl	%ebp
	.cfi_def_cfa_offset 8
	.cfi_offset 5, -8
	movl	%esp, %ebp
	.cfi_def_cfa_register 5
	.loc 1 61 0
	popl	%ebp
	.cfi_restore 5
	.cfi_def_cfa 4, 4
	ret
	.cfi_endproc
.LFE2:
	.size	main, .-main
.Letext0:
	.file 2 "/home/hellbender/opt/cross/lib/gcc/i686-hellbender/4.9.2/include/stddef.h"
	.file 3 "/media/host/hellbender-os/sysroot/usr/include/stdint.h"